; Function Attrs: nounwind uwtable
define ptr @l___private_Lean_Elab_PreDefinition_MkInhabitant_0__Lean_Elab_mkInhabitantForAux_x3f___boxed(ptr noundef %0, ptr noundef %1, ptr noundef %2, ptr noundef %3, ptr noundef %4, ptr noundef %5, ptr noundef %6, ptr noundef %7, ptr noundef %8) local_unnamed_addr #0 {
  %10 = ptrtoint ptr %3 to i64
  %11 = and i64 %10, 1
  %.not = icmp eq i64 %11, 0
  br i1 %.not, label %12, label %lean_dec.exit

12:                                               ; preds = %9
  %13 = load i32, ptr %3, align 4, !tbaa !4
  %14 = icmp sgt i32 %13, 1
  br i1 %14, label %15, label %17, !prof !11

15:                                               ; preds = %12
  %16 = add nsw i32 %13, -1
  store i32 %16, ptr %3, align 4, !tbaa !4
  br label %lean_dec.exit

17:                                               ; preds = %12
  %.not.i = icmp eq i32 %13, 0
  br i1 %.not.i, label %lean_dec.exit, label %18

18:                                               ; preds = %17
  tail call void @lean_dec_ref_cold(ptr noundef nonnull %3) #4
  br label %lean_dec.exit

lean_dec.exit:                                    ; preds = %18, %17, %15, %9
  %19 = lshr i64 %10, 1
  %20 = trunc i64 %19 to i8
  %21 = tail call ptr @l___private_Lean_Elab_PreDefinition_MkInhabitant_0__Lean_Elab_mkInhabitantForAux_x3f(ptr noundef %0, ptr noundef %1, ptr noundef %2, i8 noundef zeroext %20, ptr noundef %4, ptr noundef %5, ptr noundef %6, ptr noundef %7, ptr noundef %8)
  ret ptr %21
}